target datalayout = "e-m:e-p270:32:32-p271:32:32-p272:64:64-i64:64-i128:128-f80:128-n8:16:32:64-S128"
target triple = "x86_64-pc-linux-gnu"

%struct.vfstrace_info = type { ptr, ptr, i32, i8, ptr, ptr, ptr }
%struct.vfstrace_file = type { %struct.sqlite3_file, ptr, ptr, ptr }
%struct.sqlite3_file = type { ptr }
%struct.sqlite3_io_methods = type { i32, ptr, ptr, ptr, ptr, ptr, ptr, ptr, ptr, ptr, ptr, ptr, ptr, ptr, ptr, ptr, ptr, ptr, ptr }

@.str.347 = private unnamed_addr constant [14 x i8] c"%s.xClose(%s)\00", align 1
@.str.348 = private unnamed_addr constant [8 x i8] c" -> %s\0A\00", align 1
@.str.470 = private unnamed_addr constant [10 x i8] c"%s | 0x%x\00", align 1
@.str.471 = private unnamed_addr constant [10 x i8] c"%d (0x%x)\00", align 1

; Function Attrs: nounwind uwtable
define internal void @vfstrace_print_errcode(ptr noundef %0, ptr noundef %1, i32 noundef %2) #0 {
  %4 = alloca ptr, align 8
  %5 = alloca ptr, align 8
  %6 = alloca i32, align 4
  %7 = alloca ptr, align 8
  %8 = alloca [50 x i8], align 16
  store ptr %0, ptr %4, align 8, !tbaa !240
  store ptr %1, ptr %5, align 8, !tbaa !36
  store i32 %2, ptr %6, align 4, !tbaa !3
  call void @llvm.lifetime.start.p0(i64 8, ptr %7) #14
  call void @llvm.lifetime.start.p0(i64 50, ptr %8) #14
  %9 = load i32, ptr %6, align 4, !tbaa !3
  %10 = call ptr @vfstrace_errcode_name(i32 noundef %9)
  store ptr %10, ptr %7, align 8, !tbaa !36
  %11 = load ptr, ptr %7, align 8, !tbaa !36
  %12 = icmp eq ptr %11, null
  br i1 %12, label %13, label %32

13:                                               ; preds = %3
  %14 = load i32, ptr %6, align 4, !tbaa !3
  %15 = and i32 %14, 255
  %16 = call ptr @vfstrace_errcode_name(i32 noundef %15)
  store ptr %16, ptr %7, align 8, !tbaa !36
  %17 = load ptr, ptr %7, align 8, !tbaa !36
  %18 = icmp ne ptr %17, null
  br i1 %18, label %19, label %25

19:                                               ; preds = %13
  %20 = getelementptr inbounds [50 x i8], ptr %8, i64 0, i64 0
  %21 = load ptr, ptr %7, align 8, !tbaa !36
  %22 = load i32, ptr %6, align 4, !tbaa !3
  %23 = and i32 %22, 16776960
  %24 = call ptr (i32, ptr, ptr, ...) @sqlite3_snprintf(i32 noundef 50, ptr noundef %20, ptr noundef @.str.470, ptr noundef %21, i32 noundef %23)
  br label %30

25:                                               ; preds = %13
  %26 = getelementptr inbounds [50 x i8], ptr %8, i64 0, i64 0
  %27 = load i32, ptr %6, align 4, !tbaa !3
  %28 = load i32, ptr %6, align 4, !tbaa !3
  %29 = call ptr (i32, ptr, ptr, ...) @sqlite3_snprintf(i32 noundef 50, ptr noundef %26, ptr noundef @.str.471, i32 noundef %27, i32 noundef %28)
  br label %30

30:                                               ; preds = %25, %19
  %31 = getelementptr inbounds [50 x i8], ptr %8, i64 0, i64 0
  store ptr %31, ptr %7, align 8, !tbaa !36
  br label %32

32:                                               ; preds = %30, %3
  %33 = load ptr, ptr %4, align 8, !tbaa !240
  %34 = load ptr, ptr %5, align 8, !tbaa !36
  %35 = load ptr, ptr %7, align 8, !tbaa !36
  call void (ptr, ptr, ...) @vfstrace_printf(ptr noundef %33, ptr noundef %34, ptr noundef %35)
  call void @llvm.lifetime.end.p0(i64 50, ptr %8) #14
  call void @llvm.lifetime.end.p0(i64 8, ptr %7) #14
  ret void
}

; Function Attrs: nounwind uwtable
define internal void @vfstraceOnOff(ptr noundef %0, i32 noundef %1) #0 {
  %3 = alloca ptr, align 8
  %4 = alloca i32, align 4
  store ptr %0, ptr %3, align 8, !tbaa !240
  store i32 %1, ptr %4, align 4, !tbaa !3
  %5 = load ptr, ptr %3, align 8, !tbaa !240
  %6 = getelementptr inbounds nuw %struct.vfstrace_info, ptr %5, i32 0, i32 2
  %7 = load i32, ptr %6, align 8, !tbaa !266
  %8 = load i32, ptr %4, align 4, !tbaa !3
  %9 = and i32 %7, %8
  %10 = icmp ne i32 %9, 0
  %11 = zext i1 %10 to i32
  %12 = trunc i32 %11 to i8
  %13 = load ptr, ptr %3, align 8, !tbaa !240
  %14 = getelementptr inbounds nuw %struct.vfstrace_info, ptr %13, i32 0, i32 3
  store i8 %12, ptr %14, align 4, !tbaa !267
  ret void
}

; Function Attrs: nounwind uwtable
define internal i32 @vfstraceClose(ptr noundef %0) #0 {
  %2 = alloca ptr, align 8
  %3 = alloca ptr, align 8
  %4 = alloca ptr, align 8
  %5 = alloca i32, align 4
  store ptr %0, ptr %2, align 8, !tbaa !268
  call void @llvm.lifetime.start.p0(i64 8, ptr %3) #14
  %6 = load ptr, ptr %2, align 8, !tbaa !268
  store ptr %6, ptr %3, align 8, !tbaa !270
  call void @llvm.lifetime.start.p0(i64 8, ptr %4) #14
  %7 = load ptr, ptr %3, align 8, !tbaa !270
  %8 = getelementptr inbounds nuw %struct.vfstrace_file, ptr %7, i32 0, i32 1
  %9 = load ptr, ptr %8, align 8, !tbaa !272
  store ptr %9, ptr %4, align 8, !tbaa !240
  call void @llvm.lifetime.start.p0(i64 4, ptr %5) #14
  %10 = load ptr, ptr %4, align 8, !tbaa !240
  call void @vfstraceOnOff(ptr noundef %10, i32 noundef 1)
  %11 = load ptr, ptr %4, align 8, !tbaa !240
  %12 = load ptr, ptr %4, align 8, !tbaa !240
  %13 = getelementptr inbounds nuw %struct.vfstrace_info, ptr %12, i32 0, i32 5
  %14 = load ptr, ptr %13, align 8, !tbaa !264
  %15 = load ptr, ptr %3, align 8, !tbaa !270
  %16 = getelementptr inbounds nuw %struct.vfstrace_file, ptr %15, i32 0, i32 2
  %17 = load ptr, ptr %16, align 8, !tbaa !276
  call void (ptr, ptr, ...) @vfstrace_printf(ptr noundef %11, ptr noundef @.str.347, ptr noundef %14, ptr noundef %17)
  %18 = load ptr, ptr %3, align 8, !tbaa !270
  %19 = getelementptr inbounds nuw %struct.vfstrace_file, ptr %18, i32 0, i32 3
  %20 = load ptr, ptr %19, align 8, !tbaa !277
  %21 = getelementptr inbounds nuw %struct.sqlite3_file, ptr %20, i32 0, i32 0
  %22 = load ptr, ptr %21, align 8, !tbaa !278
  %23 = getelementptr inbounds nuw %struct.sqlite3_io_methods, ptr %22, i32 0, i32 1
  %24 = load ptr, ptr %23, align 8, !tbaa !282
  %25 = load ptr, ptr %3, align 8, !tbaa !270
  %26 = getelementptr inbounds nuw %struct.vfstrace_file, ptr %25, i32 0, i32 3
  %27 = load ptr, ptr %26, align 8, !tbaa !277
  %28 = call i32 %24(ptr noundef %27)
  store i32 %28, ptr %5, align 4, !tbaa !3
  %29 = load ptr, ptr %4, align 8, !tbaa !240
  %30 = load i32, ptr %5, align 4, !tbaa !3
  call void @vfstrace_print_errcode(ptr noundef %29, ptr noundef @.str.348, i32 noundef %30)
  %31 = load i32, ptr %5, align 4, !tbaa !3
  %32 = icmp eq i32 %31, 0
  br i1 %32, label %33, label %41

33:                                               ; preds = %1
  %34 = load ptr, ptr %3, align 8, !tbaa !270
  %35 = getelementptr inbounds nuw %struct.vfstrace_file, ptr %34, i32 0, i32 0
  %36 = getelementptr inbounds nuw %struct.sqlite3_file, ptr %35, i32 0, i32 0
  %37 = load ptr, ptr %36, align 8, !tbaa !990
  call void @sqlite3_free(ptr noundef %37)
  %38 = load ptr, ptr %3, align 8, !tbaa !270
  %39 = getelementptr inbounds nuw %struct.vfstrace_file, ptr %38, i32 0, i32 0
  %40 = getelementptr inbounds nuw %struct.sqlite3_file, ptr %39, i32 0, i32 0
  store ptr null, ptr %40, align 8, !tbaa !990
  br label %41

41:                                               ; preds = %33, %1
  %42 = load i32, ptr %5, align 4, !tbaa !3
  call void @llvm.lifetime.end.p0(i64 4, ptr %5) #14
  call void @llvm.lifetime.end.p0(i64 8, ptr %4) #14
  call void @llvm.lifetime.end.p0(i64 8, ptr %3) #14
  ret i32 %42
}