; Function Attrs: nounwind uwtable
define internal noundef i32 @vfstraceClose(ptr noundef captures(none) %0) #2 {
  %2 = alloca [50 x i8], align 16
  %3 = getelementptr inbounds nuw i8, ptr %0, i64 8
  %4 = load ptr, ptr %3, align 8, !tbaa !301
  %5 = getelementptr inbounds nuw i8, ptr %4, i64 16
  %6 = load i32, ptr %5, align 8, !tbaa !299
  %7 = trunc i32 %6 to i8
  %8 = and i8 %7, 1
  %9 = getelementptr inbounds nuw i8, ptr %4, i64 20
  store i8 %8, ptr %9, align 4, !tbaa !300
  %10 = getelementptr inbounds nuw i8, ptr %4, i64 32
  %11 = load ptr, ptr %10, align 8, !tbaa !297
  %12 = getelementptr inbounds nuw i8, ptr %0, i64 16
  %13 = load ptr, ptr %12, align 8, !tbaa !308
  tail call void (ptr, ptr, ...) @vfstrace_printf(ptr noundef %4, ptr noundef nonnull @.str.347, ptr noundef %11, ptr noundef %13)
  %14 = getelementptr inbounds nuw i8, ptr %0, i64 24
  %15 = load ptr, ptr %14, align 8, !tbaa !309
  %16 = load ptr, ptr %15, align 8, !tbaa !310
  %17 = getelementptr inbounds nuw i8, ptr %16, i64 8
  %18 = load ptr, ptr %17, align 8, !tbaa !313
  %19 = tail call i32 %18(ptr noundef nonnull %15) #43
  call void @llvm.lifetime.start.p0(i64 50, ptr nonnull %2) #43
  %20 = tail call fastcc ptr @vfstrace_errcode_name(i32 noundef %19)
  %21 = icmp eq ptr %20, null
  br i1 %21, label %22, label %vfstrace_print_errcode.exit

22:                                               ; preds = %1
  %23 = and i32 %19, 255
  %24 = tail call fastcc ptr @vfstrace_errcode_name(i32 noundef %23)
  %.not.i = icmp eq ptr %24, null
  br i1 %.not.i, label %28, label %25

25:                                               ; preds = %22
  %26 = and i32 %19, 16776960
  %27 = call ptr (i32, ptr, ptr, ...) @sqlite3_snprintf(i32 noundef 50, ptr noundef nonnull %2, ptr noundef nonnull @.str.470, ptr noundef nonnull %24, i32 noundef %26) #43
  br label %vfstrace_print_errcode.exit

28:                                               ; preds = %22
  %29 = call ptr (i32, ptr, ptr, ...) @sqlite3_snprintf(i32 noundef 50, ptr noundef nonnull %2, ptr noundef nonnull @.str.471, i32 noundef %19, i32 noundef %19) #43
  br label %vfstrace_print_errcode.exit

vfstrace_print_errcode.exit:                      ; preds = %1, %25, %28
  %.0.i = phi ptr [ %20, %1 ], [ %2, %28 ], [ %2, %25 ]
  call void (ptr, ptr, ...) @vfstrace_printf(ptr noundef nonnull readonly %4, ptr noundef nonnull @.str.348, ptr noundef nonnull %.0.i)
  call void @llvm.lifetime.end.p0(i64 50, ptr nonnull %2) #43
  %30 = icmp eq i32 %19, 0
  br i1 %30, label %31, label %33

31:                                               ; preds = %vfstrace_print_errcode.exit
  %32 = load ptr, ptr %0, align 8, !tbaa !962
  call void @sqlite3_free(ptr noundef %32) #43
  store ptr null, ptr %0, align 8, !tbaa !962
  br label %33

33:                                               ; preds = %31, %vfstrace_print_errcode.exit
  ret i32 %19
}